target datalayout = "e-m:e-p270:32:32-p271:32:32-p272:64:64-i64:64-i128:128-f80:128-n8:16:32:64-S128"
target triple = "x86_64-pc-linux-gnu"

%struct.lv_point_t = type { i32, i32 }
%struct.lv_point_precise_t = type { float, float }
%struct.lv_area_t = type { i32, i32, i32, i32 }
%struct.lv_color_t = type { i8, i8, i8 }
%struct.lv_draw_triangle_dsc_t = type { %struct.lv_draw_dsc_base_t, i8, %struct.lv_color_t, %struct.lv_grad_dsc_t, [3 x %struct.lv_point_precise_t] }
%struct.lv_draw_dsc_base_t = type { ptr, i32, i32, i32, ptr, i64, ptr }
%struct.lv_grad_dsc_t = type { [2 x %struct.lv_grad_stop_t], i8, i8 }
%struct.lv_grad_stop_t = type { %struct.lv_color_t, i8, i8 }
%union.lv_style_value_t = type { ptr }

; Function Attrs: inlinehint nounwind uwtable
define internal zeroext i8 @lv_obj_get_style_bg_grad_opa(ptr noundef %0, i32 noundef %1) #4 {
  %3 = alloca ptr, align 8
  %4 = alloca i32, align 4
  %5 = alloca %union.lv_style_value_t, align 8
  store ptr %0, ptr %3, align 8, !tbaa !8
  store i32 %1, ptr %4, align 4, !tbaa !3
  call void @llvm.lifetime.start.p0(i64 8, ptr %5) #5
  %6 = load ptr, ptr %3, align 8, !tbaa !8
  %7 = load i32, ptr %4, align 4, !tbaa !3
  %8 = call ptr @lv_obj_get_style_prop(ptr noundef %6, i32 noundef %7, i8 noundef zeroext 37)
  %9 = getelementptr inbounds nuw %union.lv_style_value_t, ptr %5, i32 0, i32 0
  store ptr %8, ptr %9, align 8
  %10 = load i32, ptr %5, align 8, !tbaa !7
  %11 = trunc i32 %10 to i8
  call void @llvm.lifetime.end.p0(i64 8, ptr %5) #5
  ret i8 %11
}

; Function Attrs: inlinehint nounwind uwtable
define internal i32 @lv_obj_get_style_bg_grad_stop(ptr noundef %0, i32 noundef %1) #4 {
  %3 = alloca ptr, align 8
  %4 = alloca i32, align 4
  %5 = alloca %union.lv_style_value_t, align 8
  store ptr %0, ptr %3, align 8, !tbaa !8
  store i32 %1, ptr %4, align 4, !tbaa !3
  call void @llvm.lifetime.start.p0(i64 8, ptr %5) #5
  %6 = load ptr, ptr %3, align 8, !tbaa !8
  %7 = load i32, ptr %4, align 4, !tbaa !3
  %8 = call ptr @lv_obj_get_style_prop(ptr noundef %6, i32 noundef %7, i8 noundef zeroext 34)
  %9 = getelementptr inbounds nuw %union.lv_style_value_t, ptr %5, i32 0, i32 0
  store ptr %8, ptr %9, align 8
  %10 = load i32, ptr %5, align 8, !tbaa !7
  call void @llvm.lifetime.end.p0(i64 8, ptr %5) #5
  ret i32 %10
}

; Function Attrs: inlinehint nounwind uwtable
define internal i24 @lv_obj_get_style_bg_grad_color(ptr noundef %0, i32 noundef %1) #4 {
  %3 = alloca %struct.lv_color_t, align 1
  %4 = alloca ptr, align 8
  %5 = alloca i32, align 4
  %6 = alloca %union.lv_style_value_t, align 8
  %7 = alloca i24, align 4
  store ptr %0, ptr %4, align 8, !tbaa !8
  store i32 %1, ptr %5, align 4, !tbaa !3
  call void @llvm.lifetime.start.p0(i64 8, ptr %6) #5
  %8 = load ptr, ptr %4, align 8, !tbaa !8
  %9 = load i32, ptr %5, align 4, !tbaa !3
  %10 = call ptr @lv_obj_get_style_prop(ptr noundef %8, i32 noundef %9, i8 noundef zeroext 35)
  %11 = getelementptr inbounds nuw %union.lv_style_value_t, ptr %6, i32 0, i32 0
  store ptr %10, ptr %11, align 8
  call void @llvm.memcpy.p0.p0.i64(ptr align 1 %3, ptr align 8 %6, i64 3, i1 false), !tbaa.struct !74
  call void @llvm.lifetime.end.p0(i64 8, ptr %6) #5
  call void @llvm.memcpy.p0.p0.i64(ptr align 4 %7, ptr align 1 %3, i64 3, i1 false)
  %12 = load i24, ptr %7, align 4
  ret i24 %12
}

; Function Attrs: inlinehint nounwind uwtable
define internal zeroext i8 @lv_obj_get_style_bg_main_opa(ptr noundef %0, i32 noundef %1) #4 {
  %3 = alloca ptr, align 8
  %4 = alloca i32, align 4
  %5 = alloca %union.lv_style_value_t, align 8
  store ptr %0, ptr %3, align 8, !tbaa !8
  store i32 %1, ptr %4, align 4, !tbaa !3
  call void @llvm.lifetime.start.p0(i64 8, ptr %5) #5
  %6 = load ptr, ptr %3, align 8, !tbaa !8
  %7 = load i32, ptr %4, align 4, !tbaa !3
  %8 = call ptr @lv_obj_get_style_prop(ptr noundef %6, i32 noundef %7, i8 noundef zeroext 36)
  %9 = getelementptr inbounds nuw %union.lv_style_value_t, ptr %5, i32 0, i32 0
  store ptr %8, ptr %9, align 8
  %10 = load i32, ptr %5, align 8, !tbaa !7
  %11 = trunc i32 %10 to i8
  call void @llvm.lifetime.end.p0(i64 8, ptr %5) #5
  ret i8 %11
}

; Function Attrs: inlinehint nounwind uwtable
define internal i32 @lv_obj_get_style_bg_main_stop(ptr noundef %0, i32 noundef %1) #4 {
  %3 = alloca ptr, align 8
  %4 = alloca i32, align 4
  %5 = alloca %union.lv_style_value_t, align 8
  store ptr %0, ptr %3, align 8, !tbaa !8
  store i32 %1, ptr %4, align 4, !tbaa !3
  call void @llvm.lifetime.start.p0(i64 8, ptr %5) #5
  %6 = load ptr, ptr %3, align 8, !tbaa !8
  %7 = load i32, ptr %4, align 4, !tbaa !3
  %8 = call ptr @lv_obj_get_style_prop(ptr noundef %6, i32 noundef %7, i8 noundef zeroext 33)
  %9 = getelementptr inbounds nuw %union.lv_style_value_t, ptr %5, i32 0, i32 0
  store ptr %8, ptr %9, align 8
  %10 = load i32, ptr %5, align 8, !tbaa !7
  call void @llvm.lifetime.end.p0(i64 8, ptr %5) #5
  ret i32 %10
}

; Function Attrs: inlinehint nounwind uwtable
define internal i24 @lv_obj_get_style_bg_color(ptr noundef %0, i32 noundef %1) #4 {
  %3 = alloca %struct.lv_color_t, align 1
  %4 = alloca ptr, align 8
  %5 = alloca i32, align 4
  %6 = alloca %union.lv_style_value_t, align 8
  %7 = alloca i24, align 4
  store ptr %0, ptr %4, align 8, !tbaa !8
  store i32 %1, ptr %5, align 4, !tbaa !3
  call void @llvm.lifetime.start.p0(i64 8, ptr %6) #5
  %8 = load ptr, ptr %4, align 8, !tbaa !8
  %9 = load i32, ptr %5, align 4, !tbaa !3
  %10 = call ptr @lv_obj_get_style_prop(ptr noundef %8, i32 noundef %9, i8 noundef zeroext 28)
  %11 = getelementptr inbounds nuw %union.lv_style_value_t, ptr %6, i32 0, i32 0
  store ptr %10, ptr %11, align 8
  call void @llvm.memcpy.p0.p0.i64(ptr align 1 %3, ptr align 8 %6, i64 3, i1 false), !tbaa.struct !74
  call void @llvm.lifetime.end.p0(i64 8, ptr %6) #5
  call void @llvm.memcpy.p0.p0.i64(ptr align 4 %7, ptr align 1 %3, i64 3, i1 false)
  %12 = load i24, ptr %7, align 4
  ret i24 %12
}

; Function Attrs: inlinehint nounwind uwtable
define internal i32 @lv_obj_get_style_bg_grad_dir(ptr noundef %0, i32 noundef %1) #4 {
  %3 = alloca ptr, align 8
  %4 = alloca i32, align 4
  %5 = alloca %union.lv_style_value_t, align 8
  store ptr %0, ptr %3, align 8, !tbaa !8
  store i32 %1, ptr %4, align 4, !tbaa !3
  call void @llvm.lifetime.start.p0(i64 8, ptr %5) #5
  %6 = load ptr, ptr %3, align 8, !tbaa !8
  %7 = load i32, ptr %4, align 4, !tbaa !3
  %8 = call ptr @lv_obj_get_style_prop(ptr noundef %6, i32 noundef %7, i8 noundef zeroext 32)
  %9 = getelementptr inbounds nuw %union.lv_style_value_t, ptr %5, i32 0, i32 0
  store ptr %8, ptr %9, align 8
  %10 = load i32, ptr %5, align 8, !tbaa !7
  call void @llvm.lifetime.end.p0(i64 8, ptr %5) #5
  ret i32 %10
}

; Function Attrs: inlinehint nounwind uwtable
define internal zeroext i8 @lv_obj_get_style_opa(ptr noundef %0, i32 noundef %1) #4 {
  %3 = alloca ptr, align 8
  %4 = alloca i32, align 4
  %5 = alloca %union.lv_style_value_t, align 8
  store ptr %0, ptr %3, align 8, !tbaa !8
  store i32 %1, ptr %4, align 4, !tbaa !3
  call void @llvm.lifetime.start.p0(i64 8, ptr %5) #5
  %6 = load ptr, ptr %3, align 8, !tbaa !8
  %7 = load i32, ptr %4, align 4, !tbaa !3
  %8 = call ptr @lv_obj_get_style_prop(ptr noundef %6, i32 noundef %7, i8 noundef zeroext 95)
  %9 = getelementptr inbounds nuw %union.lv_style_value_t, ptr %5, i32 0, i32 0
  store ptr %8, ptr %9, align 8
  %10 = load i32, ptr %5, align 8, !tbaa !7
  %11 = trunc i32 %10 to i8
  call void @llvm.lifetime.end.p0(i64 8, ptr %5) #5
  ret i8 %11
}

; Function Attrs: nounwind uwtable
define internal void @triangle_draw_event_cb(ptr noundef %0) #0 {
  %2 = alloca ptr, align 8
  %3 = alloca %struct.lv_draw_triangle_dsc_t, align 8
  %4 = alloca ptr, align 8
  %5 = alloca ptr, align 8
  %6 = alloca %struct.lv_area_t, align 4
  %7 = alloca i8, align 1
  %8 = alloca %struct.lv_color_t, align 1
  %9 = alloca %struct.lv_color_t, align 1
  store ptr %0, ptr %2, align 8, !tbaa !66
  call void @llvm.lifetime.start.p0(i64 88, ptr %3) #5
  call void @lv_draw_triangle_dsc_init(ptr noundef %3)
  call void @llvm.lifetime.start.p0(i64 8, ptr %4) #5
  %10 = load ptr, ptr %2, align 8, !tbaa !66
  %11 = call ptr @lv_event_get_target(ptr noundef %10)
  store ptr %11, ptr %4, align 8, !tbaa !8
  call void @llvm.lifetime.start.p0(i64 8, ptr %5) #5
  %12 = load ptr, ptr %2, align 8, !tbaa !66
  %13 = call ptr @lv_event_get_user_data(ptr noundef %12)
  store ptr %13, ptr %5, align 8, !tbaa !51
  call void @llvm.lifetime.start.p0(i64 16, ptr %6) #5
  %14 = load ptr, ptr %4, align 8, !tbaa !8
  call void @lv_obj_get_coords(ptr noundef %14, ptr noundef %6)
  %15 = load ptr, ptr %5, align 8, !tbaa !51
  %16 = getelementptr inbounds %struct.lv_point_t, ptr %15, i64 0
  %17 = getelementptr inbounds nuw %struct.lv_point_t, ptr %16, i32 0, i32 0
  %18 = load i32, ptr %17, align 4, !tbaa !31
  %19 = getelementptr inbounds nuw %struct.lv_area_t, ptr %6, i32 0, i32 0
  %20 = load i32, ptr %19, align 4, !tbaa !68
  %21 = add nsw i32 %18, %20
  %22 = add nsw i32 %21, 8
  %23 = sitofp i32 %22 to float
  %24 = getelementptr inbounds nuw %struct.lv_draw_triangle_dsc_t, ptr %3, i32 0, i32 4
  %25 = getelementptr inbounds [3 x %struct.lv_point_precise_t], ptr %24, i64 0, i64 0
  %26 = getelementptr inbounds nuw %struct.lv_point_precise_t, ptr %25, i32 0, i32 0
  store float %23, ptr %26, align 8, !tbaa !70
  %27 = load ptr, ptr %5, align 8, !tbaa !51
  %28 = getelementptr inbounds %struct.lv_point_t, ptr %27, i64 0
  %29 = getelementptr inbounds nuw %struct.lv_point_t, ptr %28, i32 0, i32 1
  %30 = load i32, ptr %29, align 4, !tbaa !33
  %31 = getelementptr inbounds nuw %struct.lv_area_t, ptr %6, i32 0, i32 1
  %32 = load i32, ptr %31, align 4, !tbaa !72
  %33 = add nsw i32 %30, %32
  %34 = add nsw i32 %33, 2
  %35 = sitofp i32 %34 to float
  %36 = getelementptr inbounds nuw %struct.lv_draw_triangle_dsc_t, ptr %3, i32 0, i32 4
  %37 = getelementptr inbounds [3 x %struct.lv_point_precise_t], ptr %36, i64 0, i64 0
  %38 = getelementptr inbounds nuw %struct.lv_point_precise_t, ptr %37, i32 0, i32 1
  store float %35, ptr %38, align 4, !tbaa !73
  %39 = load ptr, ptr %5, align 8, !tbaa !51
  %40 = getelementptr inbounds %struct.lv_point_t, ptr %39, i64 1
  %41 = getelementptr inbounds nuw %struct.lv_point_t, ptr %40, i32 0, i32 0
  %42 = load i32, ptr %41, align 4, !tbaa !31
  %43 = getelementptr inbounds nuw %struct.lv_area_t, ptr %6, i32 0, i32 0
  %44 = load i32, ptr %43, align 4, !tbaa !68
  %45 = add nsw i32 %42, %44
  %46 = add nsw i32 %45, 8
  %47 = sitofp i32 %46 to float
  %48 = getelementptr inbounds nuw %struct.lv_draw_triangle_dsc_t, ptr %3, i32 0, i32 4
  %49 = getelementptr inbounds [3 x %struct.lv_point_precise_t], ptr %48, i64 0, i64 1
  %50 = getelementptr inbounds nuw %struct.lv_point_precise_t, ptr %49, i32 0, i32 0
  store float %47, ptr %50, align 8, !tbaa !70
  %51 = load ptr, ptr %5, align 8, !tbaa !51
  %52 = getelementptr inbounds %struct.lv_point_t, ptr %51, i64 1
  %53 = getelementptr inbounds nuw %struct.lv_point_t, ptr %52, i32 0, i32 1
  %54 = load i32, ptr %53, align 4, !tbaa !33
  %55 = getelementptr inbounds nuw %struct.lv_area_t, ptr %6, i32 0, i32 1
  %56 = load i32, ptr %55, align 4, !tbaa !72
  %57 = add nsw i32 %54, %56
  %58 = add nsw i32 %57, 2
  %59 = sitofp i32 %58 to float
  %60 = getelementptr inbounds nuw %struct.lv_draw_triangle_dsc_t, ptr %3, i32 0, i32 4
  %61 = getelementptr inbounds [3 x %struct.lv_point_precise_t], ptr %60, i64 0, i64 1
  %62 = getelementptr inbounds nuw %struct.lv_point_precise_t, ptr %61, i32 0, i32 1
  store float %59, ptr %62, align 4, !tbaa !73
  %63 = load ptr, ptr %5, align 8, !tbaa !51
  %64 = getelementptr inbounds %struct.lv_point_t, ptr %63, i64 2
  %65 = getelementptr inbounds nuw %struct.lv_point_t, ptr %64, i32 0, i32 0
  %66 = load i32, ptr %65, align 4, !tbaa !31
  %67 = getelementptr inbounds nuw %struct.lv_area_t, ptr %6, i32 0, i32 0
  %68 = load i32, ptr %67, align 4, !tbaa !68
  %69 = add nsw i32 %66, %68
  %70 = add nsw i32 %69, 8
  %71 = sitofp i32 %70 to float
  %72 = getelementptr inbounds nuw %struct.lv_draw_triangle_dsc_t, ptr %3, i32 0, i32 4
  %73 = getelementptr inbounds [3 x %struct.lv_point_precise_t], ptr %72, i64 0, i64 2
  %74 = getelementptr inbounds nuw %struct.lv_point_precise_t, ptr %73, i32 0, i32 0
  store float %71, ptr %74, align 8, !tbaa !70
  %75 = load ptr, ptr %5, align 8, !tbaa !51
  %76 = getelementptr inbounds %struct.lv_point_t, ptr %75, i64 2
  %77 = getelementptr inbounds nuw %struct.lv_point_t, ptr %76, i32 0, i32 1
  %78 = load i32, ptr %77, align 4, !tbaa !33
  %79 = getelementptr inbounds nuw %struct.lv_area_t, ptr %6, i32 0, i32 1
  %80 = load i32, ptr %79, align 4, !tbaa !72
  %81 = add nsw i32 %78, %80
  %82 = add nsw i32 %81, 2
  %83 = sitofp i32 %82 to float
  %84 = getelementptr inbounds nuw %struct.lv_draw_triangle_dsc_t, ptr %3, i32 0, i32 4
  %85 = getelementptr inbounds [3 x %struct.lv_point_precise_t], ptr %84, i64 0, i64 2
  %86 = getelementptr inbounds nuw %struct.lv_point_precise_t, ptr %85, i32 0, i32 1
  store float %83, ptr %86, align 4, !tbaa !73
  call void @llvm.lifetime.start.p0(i64 1, ptr %7) #5
  %87 = load ptr, ptr %4, align 8, !tbaa !8
  %88 = call zeroext i8 @lv_obj_get_style_opa(ptr noundef %87, i32 noundef 0)
  store i8 %88, ptr %7, align 1, !tbaa !7
  %89 = load ptr, ptr %4, align 8, !tbaa !8
  %90 = call i32 @lv_obj_get_style_bg_grad_dir(ptr noundef %89, i32 noundef 0)
  %91 = getelementptr inbounds nuw %struct.lv_draw_triangle_dsc_t, ptr %3, i32 0, i32 3
  %92 = getelementptr inbounds nuw %struct.lv_grad_dsc_t, ptr %91, i32 0, i32 2
  %93 = trunc i32 %90 to i8
  %94 = load i8, ptr %92, align 1
  %95 = and i8 %93, 15
  %96 = and i8 %94, -16
  %97 = or i8 %96, %95
  store i8 %97, ptr %92, align 1
  %98 = getelementptr inbounds nuw %struct.lv_draw_triangle_dsc_t, ptr %3, i32 0, i32 3
  %99 = getelementptr inbounds nuw %struct.lv_grad_dsc_t, ptr %98, i32 0, i32 0
  %100 = getelementptr inbounds [2 x %struct.lv_grad_stop_t], ptr %99, i64 0, i64 0
  %101 = getelementptr inbounds nuw %struct.lv_grad_stop_t, ptr %100, i32 0, i32 0
  call void @llvm.lifetime.start.p0(i64 3, ptr %8) #5
  %102 = load ptr, ptr %4, align 8, !tbaa !8
  %103 = call i24 @lv_obj_get_style_bg_color(ptr noundef %102, i32 noundef 0)
  store i24 %103, ptr %8, align 1
  call void @llvm.memcpy.p0.p0.i64(ptr align 4 %101, ptr align 1 %8, i64 3, i1 false), !tbaa.struct !74
  call void @llvm.lifetime.end.p0(i64 3, ptr %8) #5
  %104 = load ptr, ptr %4, align 8, !tbaa !8
  %105 = call i32 @lv_obj_get_style_bg_main_stop(ptr noundef %104, i32 noundef 0)
  %106 = trunc i32 %105 to i8
  %107 = getelementptr inbounds nuw %struct.lv_draw_triangle_dsc_t, ptr %3, i32 0, i32 3
  %108 = getelementptr inbounds nuw %struct.lv_grad_dsc_t, ptr %107, i32 0, i32 0
  %109 = getelementptr inbounds [2 x %struct.lv_grad_stop_t], ptr %108, i64 0, i64 0
  %110 = getelementptr inbounds nuw %struct.lv_grad_stop_t, ptr %109, i32 0, i32 2
  store i8 %106, ptr %110, align 4, !tbaa !75
  %111 = load ptr, ptr %4, align 8, !tbaa !8
  %112 = call zeroext i8 @lv_obj_get_style_bg_main_opa(ptr noundef %111, i32 noundef 0)
  %113 = zext i8 %112 to i32
  %114 = load i8, ptr %7, align 1, !tbaa !7
  %115 = zext i8 %114 to i32
  %116 = mul nsw i32 %113, %115
  %117 = ashr i32 %116, 8
  %118 = trunc i32 %117 to i8
  %119 = getelementptr inbounds nuw %struct.lv_draw_triangle_dsc_t, ptr %3, i32 0, i32 3
  %120 = getelementptr inbounds nuw %struct.lv_grad_dsc_t, ptr %119, i32 0, i32 0
  %121 = getelementptr inbounds [2 x %struct.lv_grad_stop_t], ptr %120, i64 0, i64 0
  %122 = getelementptr inbounds nuw %struct.lv_grad_stop_t, ptr %121, i32 0, i32 1
  store i8 %118, ptr %122, align 1, !tbaa !78
  %123 = getelementptr inbounds nuw %struct.lv_draw_triangle_dsc_t, ptr %3, i32 0, i32 3
  %124 = getelementptr inbounds nuw %struct.lv_grad_dsc_t, ptr %123, i32 0, i32 0
  %125 = getelementptr inbounds [2 x %struct.lv_grad_stop_t], ptr %124, i64 0, i64 1
  %126 = getelementptr inbounds nuw %struct.lv_grad_stop_t, ptr %125, i32 0, i32 0
  call void @llvm.lifetime.start.p0(i64 3, ptr %9) #5
  %127 = load ptr, ptr %4, align 8, !tbaa !8
  %128 = call i24 @lv_obj_get_style_bg_grad_color(ptr noundef %127, i32 noundef 0)
  store i24 %128, ptr %9, align 1
  call void @llvm.memcpy.p0.p0.i64(ptr align 1 %126, ptr align 1 %9, i64 3, i1 false), !tbaa.struct !74
  call void @llvm.lifetime.end.p0(i64 3, ptr %9) #5
  %129 = load ptr, ptr %4, align 8, !tbaa !8
  %130 = call i32 @lv_obj_get_style_bg_grad_stop(ptr noundef %129, i32 noundef 0)
  %131 = trunc i32 %130 to i8
  %132 = getelementptr inbounds nuw %struct.lv_draw_triangle_dsc_t, ptr %3, i32 0, i32 3
  %133 = getelementptr inbounds nuw %struct.lv_grad_dsc_t, ptr %132, i32 0, i32 0
  %134 = getelementptr inbounds [2 x %struct.lv_grad_stop_t], ptr %133, i64 0, i64 1
  %135 = getelementptr inbounds nuw %struct.lv_grad_stop_t, ptr %134, i32 0, i32 2
  store i8 %131, ptr %135, align 1, !tbaa !75
  %136 = load ptr, ptr %4, align 8, !tbaa !8
  %137 = call zeroext i8 @lv_obj_get_style_bg_grad_opa(ptr noundef %136, i32 noundef 0)
  %138 = zext i8 %137 to i32
  %139 = load i8, ptr %7, align 1, !tbaa !7
  %140 = zext i8 %139 to i32
  %141 = mul nsw i32 %138, %140
  %142 = ashr i32 %141, 8
  %143 = trunc i32 %142 to i8
  %144 = getelementptr inbounds nuw %struct.lv_draw_triangle_dsc_t, ptr %3, i32 0, i32 3
  %145 = getelementptr inbounds nuw %struct.lv_grad_dsc_t, ptr %144, i32 0, i32 0
  %146 = getelementptr inbounds [2 x %struct.lv_grad_stop_t], ptr %145, i64 0, i64 1
  %147 = getelementptr inbounds nuw %struct.lv_grad_stop_t, ptr %146, i32 0, i32 1
  store i8 %143, ptr %147, align 1, !tbaa !78
  %148 = getelementptr inbounds nuw %struct.lv_draw_triangle_dsc_t, ptr %3, i32 0, i32 3
  %149 = getelementptr inbounds nuw %struct.lv_grad_dsc_t, ptr %148, i32 0, i32 1
  store i8 2, ptr %149, align 2, !tbaa !79
  %150 = getelementptr inbounds nuw %struct.lv_draw_triangle_dsc_t, ptr %3, i32 0, i32 2
  %151 = getelementptr inbounds nuw %struct.lv_draw_triangle_dsc_t, ptr %3, i32 0, i32 3
  %152 = getelementptr inbounds nuw %struct.lv_grad_dsc_t, ptr %151, i32 0, i32 0
  %153 = getelementptr inbounds [2 x %struct.lv_grad_stop_t], ptr %152, i64 0, i64 0
  %154 = getelementptr inbounds nuw %struct.lv_grad_stop_t, ptr %153, i32 0, i32 0
  call void @llvm.memcpy.p0.p0.i64(ptr align 1 %150, ptr align 4 %154, i64 3, i1 false), !tbaa.struct !74
  %155 = getelementptr inbounds nuw %struct.lv_draw_triangle_dsc_t, ptr %3, i32 0, i32 3
  %156 = getelementptr inbounds nuw %struct.lv_grad_dsc_t, ptr %155, i32 0, i32 0
  %157 = getelementptr inbounds [2 x %struct.lv_grad_stop_t], ptr %156, i64 0, i64 0
  %158 = getelementptr inbounds nuw %struct.lv_grad_stop_t, ptr %157, i32 0, i32 1
  %159 = load i8, ptr %158, align 1, !tbaa !78
  %160 = getelementptr inbounds nuw %struct.lv_draw_triangle_dsc_t, ptr %3, i32 0, i32 1
  store i8 %159, ptr %160, align 8, !tbaa !85
  %161 = load ptr, ptr %2, align 8, !tbaa !66
  %162 = call ptr @lv_event_get_layer(ptr noundef %161)
  call void @lv_draw_triangle(ptr noundef %162, ptr noundef %3)
  call void @llvm.lifetime.end.p0(i64 1, ptr %7) #5
  call void @llvm.lifetime.end.p0(i64 16, ptr %6) #5
  call void @llvm.lifetime.end.p0(i64 8, ptr %5) #5
  call void @llvm.lifetime.end.p0(i64 8, ptr %4) #5
  call void @llvm.lifetime.end.p0(i64 88, ptr %3) #5
  ret void
}