; Function Attrs: nounwind uwtable
define internal void @triangle_draw_event_cb(ptr noundef %0) #0 {
  %2 = alloca %struct.lv_draw_triangle_dsc_t, align 8
  %3 = alloca %struct.lv_area_t, align 4
  call void @llvm.lifetime.start.p0(i64 88, ptr nonnull %2) #6
  call void @lv_draw_triangle_dsc_init(ptr noundef nonnull %2) #6
  %4 = call ptr @lv_event_get_target(ptr noundef %0) #6
  %5 = call ptr @lv_event_get_user_data(ptr noundef %0) #6
  call void @llvm.lifetime.start.p0(i64 16, ptr nonnull %3) #6
  call void @lv_obj_get_coords(ptr noundef %4, ptr noundef nonnull %3) #6
  %6 = load i32, ptr %5, align 4, !tbaa !29
  %7 = load i32, ptr %3, align 4, !tbaa !58
  %8 = add i32 %7, 8
  %9 = add i32 %8, %6
  %10 = sitofp i32 %9 to float
  %11 = getelementptr inbounds nuw i8, ptr %2, i64 64
  store float %10, ptr %11, align 8, !tbaa !73
  %12 = getelementptr inbounds nuw i8, ptr %5, i64 4
  %13 = load i32, ptr %12, align 4, !tbaa !31
  %14 = getelementptr inbounds nuw i8, ptr %3, i64 4
  %15 = load i32, ptr %14, align 4, !tbaa !60
  %16 = add i32 %15, 2
  %17 = add i32 %16, %13
  %18 = sitofp i32 %17 to float
  %19 = getelementptr inbounds nuw i8, ptr %2, i64 68
  store float %18, ptr %19, align 4, !tbaa !75
  %20 = getelementptr inbounds nuw i8, ptr %5, i64 8
  %21 = load i32, ptr %20, align 4, !tbaa !29
  %22 = add i32 %8, %21
  %23 = sitofp i32 %22 to float
  %24 = getelementptr inbounds nuw i8, ptr %2, i64 72
  store float %23, ptr %24, align 8, !tbaa !73
  %25 = getelementptr inbounds nuw i8, ptr %5, i64 12
  %26 = load i32, ptr %25, align 4, !tbaa !31
  %27 = add i32 %16, %26
  %28 = sitofp i32 %27 to float
  %29 = getelementptr inbounds nuw i8, ptr %2, i64 76
  store float %28, ptr %29, align 4, !tbaa !75
  %30 = getelementptr inbounds nuw i8, ptr %5, i64 16
  %31 = load i32, ptr %30, align 4, !tbaa !29
  %32 = add i32 %8, %31
  %33 = sitofp i32 %32 to float
  %34 = getelementptr inbounds nuw i8, ptr %2, i64 80
  store float %33, ptr %34, align 8, !tbaa !73
  %35 = getelementptr inbounds nuw i8, ptr %5, i64 20
  %36 = load i32, ptr %35, align 4, !tbaa !31
  %37 = add i32 %16, %36
  %38 = sitofp i32 %37 to float
  %39 = getelementptr inbounds nuw i8, ptr %2, i64 84
  store float %38, ptr %39, align 4, !tbaa !75
  %40 = call ptr @lv_obj_get_style_prop(ptr noundef %4, i32 noundef 0, i8 noundef zeroext 95) #6
  %41 = ptrtoint ptr %40 to i64
  %42 = trunc i64 %41 to i32
  %43 = call ptr @lv_obj_get_style_prop(ptr noundef %4, i32 noundef 0, i8 noundef zeroext 32) #6
  %44 = ptrtoint ptr %43 to i64
  %45 = getelementptr inbounds nuw i8, ptr %2, i64 52
  %46 = getelementptr inbounds nuw i8, ptr %2, i64 63
  %47 = trunc i64 %44 to i8
  %48 = load i8, ptr %46, align 1
  %49 = and i8 %47, 15
  %50 = and i8 %48, -16
  %51 = or disjoint i8 %49, %50
  store i8 %51, ptr %46, align 1
  %52 = call ptr @lv_obj_get_style_prop(ptr noundef %4, i32 noundef 0, i8 noundef zeroext 28) #6
  %53 = ptrtoint ptr %52 to i64
  %.sroa.0.0.extract.trunc.i20 = trunc i64 %53 to i24
  store i24 %.sroa.0.0.extract.trunc.i20, ptr %45, align 4
  %54 = call ptr @lv_obj_get_style_prop(ptr noundef %4, i32 noundef 0, i8 noundef zeroext 33) #6
  %55 = ptrtoint ptr %54 to i64
  %56 = trunc i64 %55 to i8
  %57 = getelementptr inbounds nuw i8, ptr %2, i64 56
  store i8 %56, ptr %57, align 8, !tbaa !76
  %58 = call ptr @lv_obj_get_style_prop(ptr noundef %4, i32 noundef 0, i8 noundef zeroext 36) #6
  %59 = ptrtoint ptr %58 to i64
  %60 = trunc i64 %59 to i32
  %61 = and i32 %60, 255
  %62 = and i32 %42, 255
  %63 = mul nuw nsw i32 %61, %62
  %64 = lshr i32 %63, 8
  %65 = trunc nuw i32 %64 to i8
  %66 = getelementptr inbounds nuw i8, ptr %2, i64 55
  store i8 %65, ptr %66, align 1, !tbaa !78
  %67 = getelementptr inbounds nuw i8, ptr %2, i64 57
  %68 = call ptr @lv_obj_get_style_prop(ptr noundef %4, i32 noundef 0, i8 noundef zeroext 35) #6
  %69 = ptrtoint ptr %68 to i64
  %.sroa.0.0.extract.trunc.i22 = trunc i64 %69 to i24
  store i24 %.sroa.0.0.extract.trunc.i22, ptr %67, align 1
  %70 = call ptr @lv_obj_get_style_prop(ptr noundef %4, i32 noundef 0, i8 noundef zeroext 34) #6
  %71 = ptrtoint ptr %70 to i64
  %72 = trunc i64 %71 to i8
  %73 = getelementptr inbounds nuw i8, ptr %2, i64 61
  store i8 %72, ptr %73, align 1, !tbaa !76
  %74 = call ptr @lv_obj_get_style_prop(ptr noundef %4, i32 noundef 0, i8 noundef zeroext 37) #6
  %75 = ptrtoint ptr %74 to i64
  %76 = trunc i64 %75 to i32
  %77 = and i32 %76, 255
  %78 = mul nuw nsw i32 %77, %62
  %79 = lshr i32 %78, 8
  %80 = trunc nuw i32 %79 to i8
  %81 = getelementptr inbounds nuw i8, ptr %2, i64 60
  store i8 %80, ptr %81, align 4, !tbaa !78
  %82 = getelementptr inbounds nuw i8, ptr %2, i64 62
  store i8 2, ptr %82, align 2, !tbaa !79
  %83 = getelementptr inbounds nuw i8, ptr %2, i64 49
  call void @llvm.memcpy.p0.p0.i64(ptr noundef nonnull align 1 dereferenceable(3) %83, ptr noundef nonnull align 4 dereferenceable(3) %45, i64 3, i1 false), !tbaa.struct !82
  %84 = load i8, ptr %66, align 1, !tbaa !78
  %85 = getelementptr inbounds nuw i8, ptr %2, i64 48
  store i8 %84, ptr %85, align 8, !tbaa !83
  %86 = call ptr @lv_event_get_layer(ptr noundef %0) #6
  call void @lv_draw_triangle(ptr noundef %86, ptr noundef nonnull %2) #6
  call void @llvm.lifetime.end.p0(i64 16, ptr nonnull %3) #6
  call void @llvm.lifetime.end.p0(i64 88, ptr nonnull %2) #6
  ret void
}